target datalayout = "e-m:e-p270:32:32-p271:32:32-p272:64:64-i64:64-i128:128-f80:128-n8:16:32:64-S128"
target triple = "x86_64-pc-linux-gnu"

%struct.H5_user_cb_state_t = type { %struct.H5E_user_cb_state_t }
%struct.H5E_user_cb_state_t = type { i32, %union.anon, ptr }
%union.anon = type { ptr }
%struct.H5VL_class_t = type { i32, i32, ptr, i32, i64, ptr, ptr, %struct.H5VL_info_class_t, %struct.H5VL_wrap_class_t, %struct.H5VL_attr_class_t, %struct.H5VL_dataset_class_t, %struct.H5VL_datatype_class_t, %struct.H5VL_file_class_t, %struct.H5VL_group_class_t, %struct.H5VL_link_class_t, %struct.H5VL_object_class_t, %struct.H5VL_introspect_class_t, %struct.H5VL_request_class_t, %struct.H5VL_blob_class_t, %struct.H5VL_token_class_t, ptr }
%struct.H5VL_info_class_t = type { i64, ptr, ptr, ptr, ptr, ptr }
%struct.H5VL_wrap_class_t = type { ptr, ptr, ptr, ptr, ptr }
%struct.H5VL_attr_class_t = type { ptr, ptr, ptr, ptr, ptr, ptr, ptr, ptr }
%struct.H5VL_dataset_class_t = type { ptr, ptr, ptr, ptr, ptr, ptr, ptr, ptr }
%struct.H5VL_datatype_class_t = type { ptr, ptr, ptr, ptr, ptr, ptr }
%struct.H5VL_file_class_t = type { ptr, ptr, ptr, ptr, ptr, ptr }
%struct.H5VL_group_class_t = type { ptr, ptr, ptr, ptr, ptr, ptr }
%struct.H5VL_link_class_t = type { ptr, ptr, ptr, ptr, ptr, ptr }
%struct.H5VL_object_class_t = type { ptr, ptr, ptr, ptr, ptr }
%struct.H5VL_introspect_class_t = type { ptr, ptr, ptr }
%struct.H5VL_request_class_t = type { ptr, ptr, ptr, ptr, ptr, ptr }
%struct.H5VL_blob_class_t = type { ptr, ptr, ptr, ptr }
%struct.H5VL_token_class_t = type { ptr, ptr, ptr }

@.str = private unnamed_addr constant [106 x i8] c"generated/home/dtcxzyw/WorkSpace/Projects/compilers/llvm-opt-benchmark/bench/hdf5/hdf5/src/H5VLcallback.c\00", align 1
@H5E_LIB_g = external global i64, align 8
@H5E_CANTSET_g = external global i64, align 8
@.str.2 = private unnamed_addr constant [37 x i8] c"preparation for user callback failed\00", align 1
@H5E_CANTRESTORE_g = external global i64, align 8
@H5E_VOL_g = external global i64, align 8
@H5VL_init_g = external global i8, align 1
@H5_libterm_g = external global i8, align 1
@H5E_FUNC_g = external global i64, align 8
@H5E_CANTINIT_g = external global i64, align 8
@.str.5 = private unnamed_addr constant [32 x i8] c"interface initialization failed\00", align 1
@H5E_UNSUPPORTED_g = external global i64, align 8
@H5E_CANTGET_g = external global i64, align 8
@__func__.H5VL_introspect_get_cap_flags = private unnamed_addr constant [30 x i8] c"H5VL_introspect_get_cap_flags\00", align 1
@.str.139 = private unnamed_addr constant [44 x i8] c"VOL connector has no 'get_cap_flags' method\00", align 1
@.str.140 = private unnamed_addr constant [39 x i8] c"can't query connector capability flags\00", align 1

; Function Attrs: nounwind uwtable
define i32 @H5VL_introspect_get_cap_flags(ptr noundef %0, ptr noundef %1, ptr noundef %2) #0 {
  %4 = alloca i32, align 4
  %5 = alloca ptr, align 8
  %6 = alloca ptr, align 8
  %7 = alloca ptr, align 8
  %8 = alloca i32, align 4
  %9 = alloca i8, align 1
  %10 = alloca %struct.H5_user_cb_state_t, align 8
  %11 = alloca i32, align 4
  store ptr %0, ptr %5, align 8, !tbaa !42
  store ptr %1, ptr %6, align 8, !tbaa !54
  store ptr %2, ptr %7, align 8, !tbaa !36
  call void @llvm.lifetime.start.p0(i64 4, ptr %8) #8
  store i32 0, ptr %8, align 4, !tbaa !7
  call void @llvm.lifetime.start.p0(i64 1, ptr %9) #8
  store i8 0, ptr %9, align 1, !tbaa !9
  %12 = load i8, ptr @H5VL_init_g, align 1, !tbaa !9, !range !14, !noundef !15
  %13 = trunc i8 %12 to i1
  br i1 %13, label %18, label %14

14:                                               ; preds = %3
  %15 = load i8, ptr @H5_libterm_g, align 1, !tbaa !9, !range !14, !noundef !15
  %16 = trunc i8 %15 to i1
  %17 = xor i1 %16, true
  br label %18

18:                                               ; preds = %14, %3
  %19 = phi i1 [ false, %3 ], [ %17, %14 ]
  %20 = xor i1 %19, true
  %21 = xor i1 %20, true
  %22 = zext i1 %21 to i32
  %23 = sext i32 %22 to i64
  %24 = call i64 @llvm.expect.i64(i64 %23, i64 0)
  %25 = icmp ne i64 %24, 0
  br i1 %25, label %26, label %49

26:                                               ; preds = %18
  store i8 1, ptr @H5VL_init_g, align 1, !tbaa !9
  %27 = call i32 @H5VL__init_package()
  %28 = icmp slt i32 %27, 0
  br i1 %28, label %29, label %48

29:                                               ; preds = %26
  store i8 0, ptr @H5VL_init_g, align 1, !tbaa !9
  br label %30

30:                                               ; preds = %29
  br label %31

31:                                               ; preds = %30
  br label %32

32:                                               ; preds = %31
  %33 = load i64, ptr @H5E_FUNC_g, align 8, !tbaa !3
  %34 = load i64, ptr @H5E_CANTINIT_g, align 8, !tbaa !3
  %35 = call i32 (ptr, ptr, i32, i64, i64, ptr, ...) @H5E_printf_stack(ptr noundef @.str, ptr noundef @__func__.H5VL_introspect_get_cap_flags, i32 noundef 6539, i64 noundef %33, i64 noundef %34, ptr noundef @.str.5)
  br label %36

36:                                               ; preds = %32
  br label %37

37:                                               ; preds = %36
  store i8 1, ptr %9, align 1, !tbaa !9
  %38 = load i8, ptr %9, align 1, !tbaa !9, !range !14, !noundef !15
  %39 = trunc i8 %38 to i1
  %40 = zext i1 %39 to i8
  store i8 %40, ptr %9, align 1, !tbaa !9
  br label %41

41:                                               ; preds = %37
  br label %42

42:                                               ; preds = %41
  br label %43

43:                                               ; preds = %42
  store i32 -1, ptr %8, align 4, !tbaa !7
  br label %166

44:                                               ; No predecessors!
  br label %45

45:                                               ; preds = %44
  br label %46

46:                                               ; preds = %45
  br label %47

47:                                               ; preds = %46
  br label %48

48:                                               ; preds = %47, %26
  br label %49

49:                                               ; preds = %48, %18
  %50 = load i8, ptr @H5VL_init_g, align 1, !tbaa !9, !range !14, !noundef !15
  %51 = trunc i8 %50 to i1
  br i1 %51, label %56, label %52

52:                                               ; preds = %49
  %53 = load i8, ptr @H5_libterm_g, align 1, !tbaa !9, !range !14, !noundef !15
  %54 = trunc i8 %53 to i1
  %55 = xor i1 %54, true
  br label %56

56:                                               ; preds = %52, %49
  %57 = phi i1 [ true, %49 ], [ %55, %52 ]
  %58 = xor i1 %57, true
  %59 = xor i1 %58, true
  %60 = zext i1 %59 to i32
  %61 = sext i32 %60 to i64
  %62 = call i64 @llvm.expect.i64(i64 %61, i64 1)
  %63 = icmp ne i64 %62, 0
  br i1 %63, label %64, label %167

64:                                               ; preds = %56
  %65 = load ptr, ptr %6, align 8, !tbaa !54
  %66 = getelementptr inbounds nuw %struct.H5VL_class_t, ptr %65, i32 0, i32 16
  %67 = getelementptr inbounds nuw %struct.H5VL_introspect_class_t, ptr %66, i32 0, i32 1
  %68 = load ptr, ptr %67, align 8, !tbaa !169
  %69 = icmp eq ptr null, %68
  br i1 %69, label %70, label %89

70:                                               ; preds = %64
  br label %71

71:                                               ; preds = %70
  br label %72

72:                                               ; preds = %71
  br label %73

73:                                               ; preds = %72
  %74 = load i64, ptr @H5E_VOL_g, align 8, !tbaa !3
  %75 = load i64, ptr @H5E_UNSUPPORTED_g, align 8, !tbaa !3
  %76 = call i32 (ptr, ptr, i32, i64, i64, ptr, ...) @H5E_printf_stack(ptr noundef @.str, ptr noundef @__func__.H5VL_introspect_get_cap_flags, i32 noundef 6547, i64 noundef %74, i64 noundef %75, ptr noundef @.str.139)
  br label %77

77:                                               ; preds = %73
  br label %78

78:                                               ; preds = %77
  store i8 1, ptr %9, align 1, !tbaa !9
  %79 = load i8, ptr %9, align 1, !tbaa !9, !range !14, !noundef !15
  %80 = trunc i8 %79 to i1
  %81 = zext i1 %80 to i8
  store i8 %81, ptr %9, align 1, !tbaa !9
  br label %82

82:                                               ; preds = %78
  br label %83

83:                                               ; preds = %82
  br label %84

84:                                               ; preds = %83
  store i32 -1, ptr %8, align 4, !tbaa !7
  br label %166

85:                                               ; No predecessors!
  br label %86

86:                                               ; preds = %85
  br label %87

87:                                               ; preds = %86
  br label %88

88:                                               ; preds = %87
  br label %89

89:                                               ; preds = %88, %64
  call void @llvm.lifetime.start.p0(i64 24, ptr %10) #8
  %90 = call i32 @H5_user_cb_prepare(ptr noundef %10)
  %91 = icmp slt i32 %90, 0
  br i1 %91, label %92, label %111

92:                                               ; preds = %89
  br label %93

93:                                               ; preds = %92
  br label %94

94:                                               ; preds = %93
  br label %95

95:                                               ; preds = %94
  %96 = load i64, ptr @H5E_LIB_g, align 8, !tbaa !3
  %97 = load i64, ptr @H5E_CANTSET_g, align 8, !tbaa !3
  %98 = call i32 (ptr, ptr, i32, i64, i64, ptr, ...) @H5E_printf_stack(ptr noundef @.str, ptr noundef @__func__.H5VL_introspect_get_cap_flags, i32 noundef 6550, i64 noundef %96, i64 noundef %97, ptr noundef @.str.2)
  br label %99

99:                                               ; preds = %95
  br label %100

100:                                              ; preds = %99
  store i8 1, ptr %9, align 1, !tbaa !9
  %101 = load i8, ptr %9, align 1, !tbaa !9, !range !14, !noundef !15
  %102 = trunc i8 %101 to i1
  %103 = zext i1 %102 to i8
  store i8 %103, ptr %9, align 1, !tbaa !9
  br label %104

104:                                              ; preds = %100
  br label %105

105:                                              ; preds = %104
  br label %106

106:                                              ; preds = %105
  store i32 -1, ptr %8, align 4, !tbaa !7
  store i32 10, ptr %11, align 4
  br label %141

107:                                              ; No predecessors!
  br label %108

108:                                              ; preds = %107
  br label %109

109:                                              ; preds = %108
  br label %110

110:                                              ; preds = %109
  br label %111

111:                                              ; preds = %110, %89
  %112 = load ptr, ptr %6, align 8, !tbaa !54
  %113 = getelementptr inbounds nuw %struct.H5VL_class_t, ptr %112, i32 0, i32 16
  %114 = getelementptr inbounds nuw %struct.H5VL_introspect_class_t, ptr %113, i32 0, i32 1
  %115 = load ptr, ptr %114, align 8, !tbaa !169
  %116 = load ptr, ptr %5, align 8, !tbaa !42
  %117 = load ptr, ptr %7, align 8, !tbaa !36
  %118 = call i32 %115(ptr noundef %116, ptr noundef %117)
  store i32 %118, ptr %8, align 4, !tbaa !7
  %119 = call i32 @H5_user_cb_restore(ptr noundef %10)
  %120 = icmp slt i32 %119, 0
  br i1 %120, label %121, label %140

121:                                              ; preds = %111
  br label %122

122:                                              ; preds = %121
  br label %123

123:                                              ; preds = %122
  br label %124

124:                                              ; preds = %123
  %125 = load i64, ptr @H5E_LIB_g, align 8, !tbaa !3
  %126 = load i64, ptr @H5E_CANTRESTORE_g, align 8, !tbaa !3
  %127 = call i32 (ptr, ptr, i32, i64, i64, ptr, ...) @H5E_printf_stack(ptr noundef @.str, ptr noundef @__func__.H5VL_introspect_get_cap_flags, i32 noundef 6555, i64 noundef %125, i64 noundef %126, ptr noundef @.str.2)
  br label %128

128:                                              ; preds = %124
  br label %129

129:                                              ; preds = %128
  store i8 1, ptr %9, align 1, !tbaa !9
  %130 = load i8, ptr %9, align 1, !tbaa !9, !range !14, !noundef !15
  %131 = trunc i8 %130 to i1
  %132 = zext i1 %131 to i8
  store i8 %132, ptr %9, align 1, !tbaa !9
  br label %133

133:                                              ; preds = %129
  br label %134

134:                                              ; preds = %133
  br label %135

135:                                              ; preds = %134
  store i32 -1, ptr %8, align 4, !tbaa !7
  store i32 10, ptr %11, align 4
  br label %141

136:                                              ; No predecessors!
  br label %137

137:                                              ; preds = %136
  br label %138

138:                                              ; preds = %137
  br label %139

139:                                              ; preds = %138
  br label %140

140:                                              ; preds = %139, %111
  store i32 0, ptr %11, align 4
  br label %141

141:                                              ; preds = %135, %106, %140
  call void @llvm.lifetime.end.p0(i64 24, ptr %10) #8
  %142 = load i32, ptr %11, align 4
  switch i32 %142, label %169 [
    i32 0, label %143
    i32 10, label %166
  ]

143:                                              ; preds = %141
  %144 = load i32, ptr %8, align 4, !tbaa !7
  %145 = icmp slt i32 %144, 0
  br i1 %145, label %146, label %165

146:                                              ; preds = %143
  br label %147

147:                                              ; preds = %146
  br label %148

148:                                              ; preds = %147
  br label %149

149:                                              ; preds = %148
  %150 = load i64, ptr @H5E_VOL_g, align 8, !tbaa !3
  %151 = load i64, ptr @H5E_CANTGET_g, align 8, !tbaa !3
  %152 = call i32 (ptr, ptr, i32, i64, i64, ptr, ...) @H5E_printf_stack(ptr noundef @.str, ptr noundef @__func__.H5VL_introspect_get_cap_flags, i32 noundef 6557, i64 noundef %150, i64 noundef %151, ptr noundef @.str.140)
  br label %153

153:                                              ; preds = %149
  br label %154

154:                                              ; preds = %153
  store i8 1, ptr %9, align 1, !tbaa !9
  %155 = load i8, ptr %9, align 1, !tbaa !9, !range !14, !noundef !15
  %156 = trunc i8 %155 to i1
  %157 = zext i1 %156 to i8
  store i8 %157, ptr %9, align 1, !tbaa !9
  br label %158

158:                                              ; preds = %154
  br label %159

159:                                              ; preds = %158
  br label %160

160:                                              ; preds = %159
  store i32 -1, ptr %8, align 4, !tbaa !7
  br label %166

161:                                              ; No predecessors!
  br label %162

162:                                              ; preds = %161
  br label %163

163:                                              ; preds = %162
  br label %164

164:                                              ; preds = %163
  br label %165

165:                                              ; preds = %164, %143
  br label %166

166:                                              ; preds = %165, %141, %160, %84, %43
  br label %167

167:                                              ; preds = %166, %56
  %168 = load i32, ptr %8, align 4, !tbaa !7
  store i32 %168, ptr %4, align 4
  store i32 1, ptr %11, align 4
  br label %169

169:                                              ; preds = %167, %141
  call void @llvm.lifetime.end.p0(i64 1, ptr %9) #8
  call void @llvm.lifetime.end.p0(i64 4, ptr %8) #8
  %170 = load i32, ptr %4, align 4
  ret i32 %170
}