; Function Attrs: nounwind uwtable
define range(i32 -1, -2147483648) i32 @H5VL_introspect_get_cap_flags(ptr noundef %0, ptr noundef readonly captures(none) %1, ptr noundef %2) local_unnamed_addr #0 {
  %4 = alloca %struct.H5_user_cb_state_t, align 8
  %5 = load i8, ptr @H5VL_init_g, align 1, !tbaa !33, !range !35, !noundef !36
  %6 = trunc nuw i8 %5 to i1
  %7 = load i8, ptr @H5_libterm_g, align 1, !range !35
  %8 = trunc nuw i8 %7 to i1
  %9 = select i1 %6, i1 true, i1 %8
  br i1 %9, label %17, label %10, !prof !37

10:                                               ; preds = %3
  store i8 1, ptr @H5VL_init_g, align 1, !tbaa !33
  %11 = tail call i32 @H5VL__init_package() #7
  %12 = icmp slt i32 %11, 0
  br i1 %12, label %13, label %._crit_edge

._crit_edge:                                      ; preds = %10
  %.pre = load i8, ptr @H5VL_init_g, align 1, !tbaa !33, !range !35
  %.pre18 = load i8, ptr @H5_libterm_g, align 1, !range !35
  %.pre19 = trunc nuw i8 %.pre to i1
  %.pre20 = trunc nuw i8 %.pre18 to i1
  br label %17

13:                                               ; preds = %10
  store i8 0, ptr @H5VL_init_g, align 1, !tbaa !33
  %14 = load i64, ptr @H5E_FUNC_g, align 8, !tbaa !3
  %15 = load i64, ptr @H5E_CANTINIT_g, align 8, !tbaa !3
  %16 = tail call i32 (ptr, ptr, i32, i64, i64, ptr, ...) @H5E_printf_stack(ptr noundef nonnull @.str, ptr noundef nonnull @__func__.H5VL_introspect_get_cap_flags, i32 noundef 6539, i64 noundef %14, i64 noundef %15, ptr noundef nonnull @.str.5) #7
  br label %45

17:                                               ; preds = %._crit_edge, %3
  %.pre-phi21 = phi i1 [ %.pre20, %._crit_edge ], [ %8, %3 ]
  %.pre-phi = phi i1 [ %.pre19, %._crit_edge ], [ %6, %3 ]
  %18 = xor i1 %.pre-phi21, true
  %19 = select i1 %.pre-phi, i1 true, i1 %18
  br i1 %19, label %20, label %45, !prof !37

20:                                               ; preds = %17
  %21 = getelementptr inbounds nuw i8, ptr %1, i64 504
  %22 = load ptr, ptr %21, align 8, !tbaa !125
  %23 = icmp eq ptr %22, null
  br i1 %23, label %24, label %28

24:                                               ; preds = %20
  %25 = load i64, ptr @H5E_VOL_g, align 8, !tbaa !3
  %26 = load i64, ptr @H5E_UNSUPPORTED_g, align 8, !tbaa !3
  %27 = tail call i32 (ptr, ptr, i32, i64, i64, ptr, ...) @H5E_printf_stack(ptr noundef nonnull @.str, ptr noundef nonnull @__func__.H5VL_introspect_get_cap_flags, i32 noundef 6547, i64 noundef %25, i64 noundef %26, ptr noundef nonnull @.str.139) #7
  br label %45

28:                                               ; preds = %20
  call void @llvm.lifetime.start.p0(i64 24, ptr nonnull %4) #7
  %29 = call i32 @H5_user_cb_prepare(ptr noundef nonnull %4) #7
  %30 = icmp slt i32 %29, 0
  br i1 %30, label %.thread, label %31

31:                                               ; preds = %28
  %32 = load ptr, ptr %21, align 8, !tbaa !125
  %33 = call i32 %32(ptr noundef %0, ptr noundef %2) #7
  %34 = call i32 @H5_user_cb_restore(ptr noundef nonnull %4) #7
  %35 = icmp slt i32 %34, 0
  br i1 %35, label %.thread, label %39

.thread:                                          ; preds = %31, %28
  %H5E_CANTSET_g.sink = phi ptr [ @H5E_CANTSET_g, %28 ], [ @H5E_CANTRESTORE_g, %31 ]
  %.sink = phi i32 [ 6550, %28 ], [ 6555, %31 ]
  %36 = load i64, ptr @H5E_LIB_g, align 8, !tbaa !3
  %37 = load i64, ptr %H5E_CANTSET_g.sink, align 8, !tbaa !3
  %38 = call i32 (ptr, ptr, i32, i64, i64, ptr, ...) @H5E_printf_stack(ptr noundef nonnull @.str, ptr noundef nonnull @__func__.H5VL_introspect_get_cap_flags, i32 noundef %.sink, i64 noundef %36, i64 noundef %37, ptr noundef nonnull @.str.2) #7
  call void @llvm.lifetime.end.p0(i64 24, ptr nonnull %4) #7
  br label %45

39:                                               ; preds = %31
  call void @llvm.lifetime.end.p0(i64 24, ptr nonnull %4) #7
  %40 = icmp slt i32 %33, 0
  br i1 %40, label %41, label %45

41:                                               ; preds = %39
  %42 = load i64, ptr @H5E_VOL_g, align 8, !tbaa !3
  %43 = load i64, ptr @H5E_CANTGET_g, align 8, !tbaa !3
  %44 = call i32 (ptr, ptr, i32, i64, i64, ptr, ...) @H5E_printf_stack(ptr noundef nonnull @.str, ptr noundef nonnull @__func__.H5VL_introspect_get_cap_flags, i32 noundef 6557, i64 noundef %42, i64 noundef %43, ptr noundef nonnull @.str.140) #7
  br label %45

45:                                               ; preds = %.thread, %39, %17, %41, %24, %13
  %.013 = phi i32 [ -1, %13 ], [ -1, %24 ], [ %33, %39 ], [ -1, %41 ], [ 0, %17 ], [ -1, %.thread ]
  ret i32 %.013
}